target datalayout = "e-m:e-p270:32:32-p271:32:32-p272:64:64-i64:64-i128:128-f80:128-n8:16:32:64-S128"
target triple = "x86_64-pc-linux-gnu"

@update_process_title = dso_local global i8 1, align 1
@save_argc = internal global i32 0, align 4
@save_argv = internal global ptr null, align 8
@ps_buffer = internal global ptr null, align 8
@ps_buffer_size = internal global i64 0, align 8
@last_status_len = internal global i64 0, align 8
@MyBackendType = external global i32, align 4
@IsUnderPostmaster = external global i8, align 1
@cluster_name = external global ptr, align 8
@.str.1 = private unnamed_addr constant [14 x i8] c"postgres: %s \00", align 1
@.str.2 = private unnamed_addr constant [18 x i8] c"postgres: %s: %s \00", align 1
@ps_buffer_fixed_size = internal global i64 0, align 8
@ps_buffer_cur_len = internal global i64 0, align 8
@.str.3 = private unnamed_addr constant [1 x i8] zeroinitializer, align 1
@ps_buffer_nosuffix_len = internal global i64 0, align 8

; Function Attrs: nounwind uwtable
define internal void @flush_ps_display() #0 {
  %1 = alloca ptr, align 8
  %2 = alloca i32, align 4
  %3 = alloca i64, align 8
  %4 = alloca ptr, align 8
  %5 = alloca ptr, align 8
  %6 = load i64, ptr @last_status_len, align 8
  %7 = load i64, ptr @ps_buffer_cur_len, align 8
  %8 = icmp ugt i64 %6, %7
  br i1 %8, label %9, label %51

9:                                                ; preds = %0
  br label %10

10:                                               ; preds = %9
  call void @llvm.lifetime.start.p0(i64 8, ptr %1) #10
  %11 = load ptr, ptr @ps_buffer, align 8
  %12 = load i64, ptr @ps_buffer_cur_len, align 8
  %13 = getelementptr inbounds nuw i8, ptr %11, i64 %12
  store ptr %13, ptr %1, align 8
  call void @llvm.lifetime.start.p0(i64 4, ptr %2) #10
  store i32 0, ptr %2, align 4
  call void @llvm.lifetime.start.p0(i64 8, ptr %3) #10
  %14 = load i64, ptr @last_status_len, align 8
  %15 = load i64, ptr @ps_buffer_cur_len, align 8
  %16 = sub i64 %14, %15
  store i64 %16, ptr %3, align 8
  %17 = load ptr, ptr %1, align 8
  %18 = ptrtoint ptr %17 to i64
  %19 = and i64 %18, 7
  %20 = icmp eq i64 %19, 0
  br i1 %20, label %21, label %44

21:                                               ; preds = %10
  %22 = load i64, ptr %3, align 8
  %23 = and i64 %22, 7
  %24 = icmp eq i64 %23, 0
  br i1 %24, label %25, label %44

25:                                               ; preds = %21
  %26 = load i32, ptr %2, align 4
  %27 = icmp eq i32 %26, 0
  br i1 %27, label %28, label %44

28:                                               ; preds = %25
  %29 = load i64, ptr %3, align 8
  %30 = icmp ule i64 %29, 1024
  br i1 %30, label %31, label %44

31:                                               ; preds = %28
  call void @llvm.lifetime.start.p0(i64 8, ptr %4) #10
  %32 = load ptr, ptr %1, align 8
  store ptr %32, ptr %4, align 8
  call void @llvm.lifetime.start.p0(i64 8, ptr %5) #10
  %33 = load ptr, ptr %4, align 8
  %34 = load i64, ptr %3, align 8
  %35 = getelementptr inbounds nuw i8, ptr %33, i64 %34
  store ptr %35, ptr %5, align 8
  br label %36

36:                                               ; preds = %40, %31
  %37 = load ptr, ptr %4, align 8
  %38 = load ptr, ptr %5, align 8
  %39 = icmp ult ptr %37, %38
  br i1 %39, label %40, label %43

40:                                               ; preds = %36
  %41 = load ptr, ptr %4, align 8
  %42 = getelementptr inbounds nuw i64, ptr %41, i32 1
  store ptr %42, ptr %4, align 8
  store i64 0, ptr %41, align 8
  br label %36, !llvm.loop !12

43:                                               ; preds = %36
  call void @llvm.lifetime.end.p0(i64 8, ptr %5) #10
  call void @llvm.lifetime.end.p0(i64 8, ptr %4) #10
  br label %49

44:                                               ; preds = %28, %25, %21, %10
  %45 = load ptr, ptr %1, align 8
  %46 = load i32, ptr %2, align 4
  %47 = trunc i32 %46 to i8
  %48 = load i64, ptr %3, align 8
  call void @llvm.memset.p0.i64(ptr align 1 %45, i8 %47, i64 %48, i1 false)
  br label %49

49:                                               ; preds = %44, %43
  call void @llvm.lifetime.end.p0(i64 8, ptr %3) #10
  call void @llvm.lifetime.end.p0(i64 4, ptr %2) #10
  call void @llvm.lifetime.end.p0(i64 8, ptr %1) #10
  br label %50

50:                                               ; preds = %49
  br label %51

51:                                               ; preds = %50, %0
  %52 = load i64, ptr @ps_buffer_cur_len, align 8
  store i64 %52, ptr @last_status_len, align 8
  ret void
}

; Function Attrs: nounwind uwtable
define internal zeroext i1 @update_ps_display_precheck() #0 {
  %1 = alloca i1, align 1
  %2 = load i8, ptr @update_process_title, align 1, !range !9, !noundef !10
  %3 = trunc i8 %2 to i1
  br i1 %3, label %5, label %4

4:                                                ; preds = %0
  store i1 false, ptr %1, align 1
  br label %14

5:                                                ; preds = %0
  %6 = load i8, ptr @IsUnderPostmaster, align 1, !range !9, !noundef !10
  %7 = trunc i8 %6 to i1
  br i1 %7, label %9, label %8

8:                                                ; preds = %5
  store i1 false, ptr %1, align 1
  br label %14

9:                                                ; preds = %5
  %10 = load ptr, ptr @ps_buffer, align 8
  %11 = icmp ne ptr %10, null
  br i1 %11, label %13, label %12

12:                                               ; preds = %9
  store i1 false, ptr %1, align 1
  br label %14

13:                                               ; preds = %9
  store i1 true, ptr %1, align 1
  br label %14

14:                                               ; preds = %13, %12, %8, %4
  %15 = load i1, ptr %1, align 1
  ret i1 %15
}

; Function Attrs: nounwind uwtable
define dso_local void @set_ps_display_with_len(ptr noundef %0, i64 noundef %1) #0 {
  %3 = alloca ptr, align 8
  %4 = alloca i64, align 8
  store ptr %0, ptr %3, align 8
  store i64 %1, ptr %4, align 8
  %5 = call zeroext i1 @update_ps_display_precheck()
  br i1 %5, label %7, label %6

6:                                                ; preds = %2
  br label %39

7:                                                ; preds = %2
  store i64 0, ptr @ps_buffer_nosuffix_len, align 8
  %8 = load i64, ptr @ps_buffer_fixed_size, align 8
  %9 = load i64, ptr %4, align 8
  %10 = add i64 %8, %9
  %11 = load i64, ptr @ps_buffer_size, align 8
  %12 = icmp uge i64 %10, %11
  br i1 %12, label %13, label %28

13:                                               ; preds = %7
  %14 = load ptr, ptr @ps_buffer, align 8
  %15 = load i64, ptr @ps_buffer_fixed_size, align 8
  %16 = getelementptr inbounds nuw i8, ptr %14, i64 %15
  %17 = load ptr, ptr %3, align 8
  %18 = load i64, ptr @ps_buffer_size, align 8
  %19 = load i64, ptr @ps_buffer_fixed_size, align 8
  %20 = sub i64 %18, %19
  %21 = sub i64 %20, 1
  call void @llvm.memcpy.p0.p0.i64(ptr align 1 %16, ptr align 1 %17, i64 %21, i1 false)
  %22 = load ptr, ptr @ps_buffer, align 8
  %23 = load i64, ptr @ps_buffer_size, align 8
  %24 = sub i64 %23, 1
  %25 = getelementptr inbounds nuw i8, ptr %22, i64 %24
  store i8 0, ptr %25, align 1
  %26 = load i64, ptr @ps_buffer_size, align 8
  %27 = sub i64 %26, 1
  store i64 %27, ptr @ps_buffer_cur_len, align 8
  br label %38

28:                                               ; preds = %7
  %29 = load ptr, ptr @ps_buffer, align 8
  %30 = load i64, ptr @ps_buffer_fixed_size, align 8
  %31 = getelementptr inbounds nuw i8, ptr %29, i64 %30
  %32 = load ptr, ptr %3, align 8
  %33 = load i64, ptr %4, align 8
  %34 = add i64 %33, 1
  call void @llvm.memcpy.p0.p0.i64(ptr align 1 %31, ptr align 1 %32, i64 %34, i1 false)
  %35 = load i64, ptr @ps_buffer_fixed_size, align 8
  %36 = load i64, ptr %4, align 8
  %37 = add i64 %35, %36
  store i64 %37, ptr @ps_buffer_cur_len, align 8
  br label %38

38:                                               ; preds = %28, %13
  call void @flush_ps_display()
  br label %39

39:                                               ; preds = %38, %6
  ret void
}

; Function Attrs: inlinehint nounwind uwtable
define internal void @set_ps_display(ptr noundef %0) #7 {
  %2 = alloca ptr, align 8
  store ptr %0, ptr %2, align 8
  %3 = load ptr, ptr %2, align 8
  %4 = load ptr, ptr %2, align 8
  %5 = call i64 @strlen(ptr noundef %4) #11
  call void @set_ps_display_with_len(ptr noundef %3, i64 noundef %5)
  ret void
}

; Function Attrs: nounwind uwtable
define dso_local void @init_ps_display(ptr noundef %0) #0 {
  %2 = alloca ptr, align 8
  %3 = alloca i8, align 1
  %4 = alloca i32, align 4
  %5 = alloca i32, align 4
  store ptr %0, ptr %2, align 8
  call void @llvm.lifetime.start.p0(i64 1, ptr %3) #10
  %6 = load ptr, ptr %2, align 8
  %7 = icmp ne ptr %6, null
  br i1 %7, label %11, label %8

8:                                                ; preds = %1
  %9 = load i32, ptr @MyBackendType, align 4
  %10 = call ptr @GetBackendTypeDesc(i32 noundef %9)
  store ptr %10, ptr %2, align 8
  br label %11

11:                                               ; preds = %8, %1
  %12 = load i8, ptr @IsUnderPostmaster, align 1, !range !9, !noundef !10
  %13 = trunc i8 %12 to i1
  br i1 %13, label %15, label %14

14:                                               ; preds = %11
  store i32 1, ptr %4, align 4
  br label %65

15:                                               ; preds = %11
  %16 = load ptr, ptr @save_argv, align 8
  %17 = icmp ne ptr %16, null
  br i1 %17, label %19, label %18

18:                                               ; preds = %15
  store i32 1, ptr %4, align 4
  br label %65

19:                                               ; preds = %15
  %20 = load ptr, ptr @ps_buffer, align 8
  %21 = icmp ne ptr %20, null
  br i1 %21, label %23, label %22

22:                                               ; preds = %19
  store i32 1, ptr %4, align 4
  br label %65

23:                                               ; preds = %19
  call void @llvm.lifetime.start.p0(i64 4, ptr %5) #10
  store i32 1, ptr %5, align 4
  br label %24

24:                                               ; preds = %37, %23
  %25 = load i32, ptr %5, align 4
  %26 = load i32, ptr @save_argc, align 4
  %27 = icmp slt i32 %25, %26
  br i1 %27, label %29, label %28

28:                                               ; preds = %24
  store i32 2, ptr %4, align 4
  call void @llvm.lifetime.end.p0(i64 4, ptr %5) #10
  br label %40

29:                                               ; preds = %24
  %30 = load ptr, ptr @ps_buffer, align 8
  %31 = load i64, ptr @ps_buffer_size, align 8
  %32 = getelementptr inbounds nuw i8, ptr %30, i64 %31
  %33 = load ptr, ptr @save_argv, align 8
  %34 = load i32, ptr %5, align 4
  %35 = sext i32 %34 to i64
  %36 = getelementptr inbounds ptr, ptr %33, i64 %35
  store ptr %32, ptr %36, align 8
  br label %37

37:                                               ; preds = %29
  %38 = load i32, ptr %5, align 4
  %39 = add i32 %38, 1
  store i32 %39, ptr %5, align 4
  br label %24, !llvm.loop !11

40:                                               ; preds = %28
  %41 = load ptr, ptr @cluster_name, align 8
  %42 = load i8, ptr %41, align 1
  %43 = sext i8 %42 to i32
  %44 = icmp eq i32 %43, 0
  br i1 %44, label %45, label %50

45:                                               ; preds = %40
  %46 = load ptr, ptr @ps_buffer, align 8
  %47 = load i64, ptr @ps_buffer_size, align 8
  %48 = load ptr, ptr %2, align 8
  %49 = call i32 (ptr, i64, ptr, ...) @pg_snprintf(ptr noundef %46, i64 noundef %47, ptr noundef @.str.1, ptr noundef %48)
  br label %56

50:                                               ; preds = %40
  %51 = load ptr, ptr @ps_buffer, align 8
  %52 = load i64, ptr @ps_buffer_size, align 8
  %53 = load ptr, ptr @cluster_name, align 8
  %54 = load ptr, ptr %2, align 8
  %55 = call i32 (ptr, i64, ptr, ...) @pg_snprintf(ptr noundef %51, i64 noundef %52, ptr noundef @.str.2, ptr noundef %53, ptr noundef %54)
  br label %56

56:                                               ; preds = %50, %45
  %57 = load ptr, ptr @ps_buffer, align 8
  %58 = call i64 @strlen(ptr noundef %57) #11
  store i64 %58, ptr @ps_buffer_fixed_size, align 8
  store i64 %58, ptr @ps_buffer_cur_len, align 8
  %59 = load i8, ptr @update_process_title, align 1, !range !9, !noundef !10
  %60 = trunc i8 %59 to i1
  %61 = zext i1 %60 to i8
  store i8 %61, ptr %3, align 1
  store i8 1, ptr @update_process_title, align 1
  call void @set_ps_display(ptr noundef @.str.3)
  %62 = load i8, ptr %3, align 1, !range !9, !noundef !10
  %63 = trunc i8 %62 to i1
  %64 = zext i1 %63 to i8
  store i8 %64, ptr @update_process_title, align 1
  store i32 0, ptr %4, align 4
  br label %65

65:                                               ; preds = %56, %22, %18, %14
  call void @llvm.lifetime.end.p0(i64 1, ptr %3) #10
  %66 = load i32, ptr %4, align 4
  switch i32 %66, label %68 [
    i32 0, label %67
    i32 1, label %67
  ]

67:                                               ; preds = %65, %65
  ret void

68:                                               ; preds = %65
  unreachable
}