; Function Attrs: nounwind uwtable
define dso_local void @init_ps_display(ptr noundef %0) local_unnamed_addr #0 {
  %.not = icmp eq ptr %0, null
  br i1 %.not, label %2, label %5

2:                                                ; preds = %1
  %3 = load i32, ptr @MyBackendType, align 4
  %4 = tail call ptr @GetBackendTypeDesc(i32 noundef %3) #15
  br label %5

5:                                                ; preds = %2, %1
  %.06 = phi ptr [ %0, %1 ], [ %4, %2 ]
  %6 = load i8, ptr @IsUnderPostmaster, align 1, !range !9, !noundef !10
  %7 = trunc nuw i8 %6 to i1
  %.not10 = xor i1 %7, true
  %8 = load ptr, ptr @save_argv, align 8
  %.not8 = icmp eq ptr %8, null
  %or.cond = select i1 %.not10, i1 true, i1 %.not8
  %9 = load ptr, ptr @ps_buffer, align 8
  %.not9 = icmp eq ptr %9, null
  %or.cond11 = select i1 %or.cond, i1 true, i1 %.not9
  br i1 %or.cond11, label %62, label %.preheader

.preheader:                                       ; preds = %5
  %10 = load i32, ptr @save_argc, align 4
  %11 = icmp sgt i32 %10, 1
  br i1 %11, label %.lr.ph, label %._crit_edge

.lr.ph:                                           ; preds = %.preheader
  %12 = load i64, ptr @ps_buffer_size, align 8
  %13 = getelementptr inbounds nuw i8, ptr %9, i64 %12
  %wide.trip.count = zext nneg i32 %10 to i64
  br label %18

._crit_edge:                                      ; preds = %18, %.preheader
  %14 = load ptr, ptr @cluster_name, align 8
  %15 = load i8, ptr %14, align 1
  %16 = icmp eq i8 %15, 0
  %17 = load i64, ptr @ps_buffer_size, align 8
  br i1 %16, label %20, label %22

18:                                               ; preds = %.lr.ph, %18
  %indvars.iv = phi i64 [ 1, %.lr.ph ], [ %indvars.iv.next, %18 ]
  %19 = getelementptr inbounds nuw ptr, ptr %8, i64 %indvars.iv
  store ptr %13, ptr %19, align 8
  %indvars.iv.next = add nuw nsw i64 %indvars.iv, 1
  %exitcond.not = icmp eq i64 %indvars.iv.next, %wide.trip.count
  br i1 %exitcond.not, label %._crit_edge, label %18, !llvm.loop !11

20:                                               ; preds = %._crit_edge
  %21 = tail call i32 (ptr, i64, ptr, ...) @pg_snprintf(ptr noundef %9, i64 noundef %17, ptr noundef nonnull @.str.1, ptr noundef %.06) #15
  br label %24

22:                                               ; preds = %._crit_edge
  %23 = tail call i32 (ptr, i64, ptr, ...) @pg_snprintf(ptr noundef %9, i64 noundef %17, ptr noundef nonnull @.str.2, ptr noundef nonnull %14, ptr noundef %.06) #15
  br label %24

24:                                               ; preds = %20, %22
  %25 = load ptr, ptr @ps_buffer, align 8
  %26 = tail call i64 @strlen(ptr noundef nonnull dereferenceable(1) %25) #13
  store i64 %26, ptr @ps_buffer_fixed_size, align 8
  store i64 %26, ptr @ps_buffer_cur_len, align 8
  %27 = load i8, ptr @update_process_title, align 1, !range !9, !noundef !10
  %28 = load i8, ptr @IsUnderPostmaster, align 1, !range !9, !noundef !10
  %29 = trunc nuw i8 %28 to i1
  br i1 %29, label %30, label %set_ps_display.exit

30:                                               ; preds = %24
  store i64 0, ptr @ps_buffer_nosuffix_len, align 8
  %31 = load i64, ptr @ps_buffer_size, align 8
  %.not.i.i = icmp ult i64 %26, %31
  %32 = getelementptr inbounds nuw i8, ptr %25, i64 %26
  br i1 %.not.i.i, label %39, label %33

33:                                               ; preds = %30
  %34 = xor i64 %26, -1
  %35 = add i64 %31, %34
  tail call void @llvm.memset.p0.i64(ptr nonnull align 1 %32, i8 0, i64 %35, i1 false)
  %36 = getelementptr i8, ptr %25, i64 %31
  %37 = getelementptr i8, ptr %36, i64 -1
  store i8 0, ptr %37, align 1
  %38 = add i64 %31, -1
  br label %40

39:                                               ; preds = %30
  store i8 0, ptr %32, align 1
  br label %40

40:                                               ; preds = %39, %33
  %storemerge.i.i = phi i64 [ %26, %39 ], [ %38, %33 ]
  store i64 %storemerge.i.i, ptr @ps_buffer_cur_len, align 8
  %41 = load i64, ptr @last_status_len, align 8
  %42 = icmp ugt i64 %41, %storemerge.i.i
  br i1 %42, label %43, label %flush_ps_display.exit.i.i

43:                                               ; preds = %40
  %44 = ptrtoint ptr %25 to i64
  %45 = getelementptr inbounds nuw i8, ptr %25, i64 %storemerge.i.i
  %46 = sub nuw i64 %41, %storemerge.i.i
  %47 = ptrtoint ptr %45 to i64
  %48 = and i64 %47, 7
  %49 = icmp eq i64 %48, 0
  br i1 %49, label %50, label %flush_ps_display.exit.sink.split.i.i

50:                                               ; preds = %43
  %51 = and i64 %46, 7
  %52 = icmp eq i64 %51, 0
  %53 = icmp ult i64 %46, 1025
  %or.cond3.i.i.i = and i1 %53, %52
  br i1 %or.cond3.i.i.i, label %.lr.ph.preheader.i.i.i, label %flush_ps_display.exit.sink.split.i.i

.lr.ph.preheader.i.i.i:                           ; preds = %50
  %54 = add i64 %44, 8
  %55 = add i64 %54, %storemerge.i.i
  %56 = add i64 %41, %44
  %umax.i.i.i = tail call i64 @llvm.umax.i64(i64 %55, i64 %56)
  %57 = xor i64 %storemerge.i.i, -1
  %58 = sub i64 %57, %44
  %59 = add i64 %58, %umax.i.i.i
  %60 = and i64 %59, -8
  %61 = add i64 %60, 8
  br label %flush_ps_display.exit.sink.split.i.i

flush_ps_display.exit.sink.split.i.i:             ; preds = %.lr.ph.preheader.i.i.i, %50, %43
  %.sink.i.i = phi i64 [ %61, %.lr.ph.preheader.i.i.i ], [ %46, %50 ], [ %46, %43 ]
  tail call void @llvm.memset.p0.i64(ptr nonnull align 1 %45, i8 0, i64 %.sink.i.i, i1 false)
  br label %flush_ps_display.exit.i.i

flush_ps_display.exit.i.i:                        ; preds = %flush_ps_display.exit.sink.split.i.i, %40
  store i64 %storemerge.i.i, ptr @last_status_len, align 8
  br label %set_ps_display.exit

set_ps_display.exit:                              ; preds = %24, %flush_ps_display.exit.i.i
  store i8 %27, ptr @update_process_title, align 1
  br label %62

62:                                               ; preds = %5, %set_ps_display.exit
  ret void
}